	.file	"ex03.cpp"
	.intel_syntax noprefix
	.text
Ltext0:
.lcomm __ZStL8__ioinit,1,1
	.align 2
	.globl	__ZN9SomeClassC2Ev
	.def	__ZN9SomeClassC2Ev;	.scl	2;	.type	32;	.endef
__ZN9SomeClassC2Ev:
LFB972:
	.file 1 "ex03.cpp"
	.loc 1 21 0
	.cfi_startproc
	push	ebp
	.cfi_def_cfa_offset 8
	.cfi_offset 5, -8
	mov	ebp, esp
	.cfi_def_cfa_register 5
	sub	esp, 4
	mov	DWORD PTR [ebp-4], ecx
LBB2:
	.loc 1 21 0
	mov	eax, DWORD PTR [ebp-4]
	mov	DWORD PTR [eax], 1
LBE2:
	leave
	.cfi_restore 5
	.cfi_def_cfa 4, 4
	ret
	.cfi_endproc
LFE972:
	.globl	__ZN9SomeClassC1Ev
	.def	__ZN9SomeClassC1Ev;	.scl	2;	.type	32;	.endef
	.set	__ZN9SomeClassC1Ev,__ZN9SomeClassC2Ev
	.align 2
	.globl	__ZN9SomeClass8someFuncEi
	.def	__ZN9SomeClass8someFuncEi;	.scl	2;	.type	32;	.endef
__ZN9SomeClass8someFuncEi:
LFB974:
	.loc 1 23 0
	.cfi_startproc
	push	ebp
	.cfi_def_cfa_offset 8
	.cfi_offset 5, -8
	mov	ebp, esp
	.cfi_def_cfa_register 5
	push	ebx
	sub	esp, 20
	.cfi_offset 3, -12
	mov	DWORD PTR [ebp-12], ecx
	.loc 1 23 0
	mov	eax, DWORD PTR [ebp-12]
	mov	ebx, DWORD PTR [eax]
	mov	eax, DWORD PTR [ebp+8]
	mov	DWORD PTR [esp], eax
	mov	ecx, OFFSET FLAT:__ZSt4cout
	call	__ZNSolsEi
	sub	esp, 4
	mov	DWORD PTR [esp+4], 10
	mov	DWORD PTR [esp], eax
	call	__ZStlsISt11char_traitsIcEERSt13basic_ostreamIcT_ES5_c
	mov	DWORD PTR [esp], ebx
	mov	ecx, eax
	call	__ZNSolsEi
	sub	esp, 4
	mov	DWORD PTR [esp], OFFSET FLAT:__ZSt4endlIcSt11char_traitsIcEERSt13basic_ostreamIT_T0_ES6_
	mov	ecx, eax
	call	__ZNSolsEPFRSoS_E
	sub	esp, 4
	mov	ebx, DWORD PTR [ebp-4]
	leave
	.cfi_restore 5
	.cfi_restore 3
	.cfi_def_cfa 4, 4
	ret	4
	.cfi_endproc
LFE974:
	.align 2
	.globl	__ZN9SomeClass8someFuncEc
	.def	__ZN9SomeClass8someFuncEc;	.scl	2;	.type	32;	.endef
__ZN9SomeClass8someFuncEc:
LFB975:
	.loc 1 25 0
	.cfi_startproc
	push	ebp
	.cfi_def_cfa_offset 8
	.cfi_offset 5, -8
	mov	ebp, esp
	.cfi_def_cfa_register 5
	push	ebx
	sub	esp, 20
	.cfi_offset 3, -12
	mov	DWORD PTR [ebp-12], ecx
	mov	eax, DWORD PTR [ebp+8]
	mov	BYTE PTR [ebp-16], al
	.loc 1 25 0
	mov	eax, DWORD PTR [ebp-12]
	mov	ebx, DWORD PTR [eax]
	movsx	eax, BYTE PTR [ebp-16]
	mov	DWORD PTR [esp+4], eax
	mov	DWORD PTR [esp], OFFSET FLAT:__ZSt4cout
	call	__ZStlsISt11char_traitsIcEERSt13basic_ostreamIcT_ES5_c
	mov	DWORD PTR [esp+4], 10
	mov	DWORD PTR [esp], eax
	call	__ZStlsISt11char_traitsIcEERSt13basic_ostreamIcT_ES5_c
	mov	DWORD PTR [esp], ebx
	mov	ecx, eax
	call	__ZNSolsEi
	sub	esp, 4
	mov	DWORD PTR [esp], OFFSET FLAT:__ZSt4endlIcSt11char_traitsIcEERSt13basic_ostreamIT_T0_ES6_
	mov	ecx, eax
	call	__ZNSolsEPFRSoS_E
	sub	esp, 4
	mov	ebx, DWORD PTR [ebp-4]
	leave
	.cfi_restore 5
	.cfi_restore 3
	.cfi_def_cfa 4, 4
	ret	4
	.cfi_endproc
LFE975:
	.def	___main;	.scl	2;	.type	32;	.endef
	.globl	_main
	.def	_main;	.scl	2;	.type	32;	.endef
_main:
LFB976:
	.loc 1 27 0
	.cfi_startproc
	.cfi_personality 0,___gxx_personality_v0
	.cfi_lsda 0,LLSDA976
	lea	ecx, [esp+4]
	.cfi_def_cfa 1, 0
	and	esp, -16
	push	DWORD PTR [ecx-4]
	push	ebp
	.cfi_escape 0x10,0x5,0x2,0x75,0
	mov	ebp, esp
	push	ecx
	.cfi_escape 0xf,0x3,0x75,0x7c,0x6
	sub	esp, 36
	.loc 1 27 0
	call	___main
LBB3:
	.loc 1 29 0
	lea	eax, [ebp-12]
	mov	ecx, eax
	call	__ZN9SomeClassC1Ev
	.loc 1 30 0
	lea	eax, [ebp-12]
	mov	DWORD PTR [esp], 1
	mov	ecx, eax
LEHB0:
	call	__ZN9SomeClass8someFuncEi
	sub	esp, 4
	.loc 1 31 0
	lea	eax, [ebp-12]
	mov	DWORD PTR [esp], 50
	mov	ecx, eax
	call	__ZN9SomeClass8someFuncEc
LEHE0:
	sub	esp, 4
	.loc 1 33 0
	mov	eax, 0
	jmp	L8
L7:
	mov	DWORD PTR [esp], eax
LEHB1:
	call	__Unwind_Resume
LEHE1:
L8:
LBE3:
	.loc 1 34 0
	mov	ecx, DWORD PTR [ebp-4]
	.cfi_def_cfa 1, 0
	leave
	.cfi_restore 5
	lea	esp, [ecx-4]
	.cfi_def_cfa 4, 4
	ret
	.cfi_endproc
LFE976:
	.def	___gxx_personality_v0;	.scl	2;	.type	32;	.endef
	.section	.gcc_except_table,"w"
LLSDA976:
	.byte	0xff
	.byte	0xff
	.byte	0x1
	.uleb128 LLSDACSE976-LLSDACSB976
LLSDACSB976:
	.uleb128 LEHB0-LFB976
	.uleb128 LEHE0-LEHB0
	.uleb128 L7-LFB976
	.uleb128 0
	.uleb128 LEHB1-LFB976
	.uleb128 LEHE1-LEHB1
	.uleb128 0
	.uleb128 0
LLSDACSE976:
	.text
	.def	___tcf_0;	.scl	3;	.type	32;	.endef
___tcf_0:
LFB984:
	.file 2 "d:/programs/mingw/lib/gcc/mingw32/4.8.1/include/c++/iostream"
	.loc 2 74 0
	.cfi_startproc
	push	ebp
	.cfi_def_cfa_offset 8
	.cfi_offset 5, -8
	mov	ebp, esp
	.cfi_def_cfa_register 5
	sub	esp, 8
	.loc 2 74 0
	mov	ecx, OFFSET FLAT:__ZStL8__ioinit
	call	__ZNSt8ios_base4InitD1Ev
	leave
	.cfi_restore 5
	.cfi_def_cfa 4, 4
	ret
	.cfi_endproc
LFE984:
	.def	__Z41__static_initialization_and_destruction_0ii;	.scl	3;	.type	32;	.endef
__Z41__static_initialization_and_destruction_0ii:
LFB983:
	.loc 1 34 0
	.cfi_startproc
	push	ebp
	.cfi_def_cfa_offset 8
	.cfi_offset 5, -8
	mov	ebp, esp
	.cfi_def_cfa_register 5
	sub	esp, 24
	.loc 1 34 0
	cmp	DWORD PTR [ebp+8], 1
	jne	L10
	.loc 1 34 0 is_stmt 0 discriminator 1
	cmp	DWORD PTR [ebp+12], 65535
	jne	L10
	.loc 2 74 0 is_stmt 1
	mov	ecx, OFFSET FLAT:__ZStL8__ioinit
	call	__ZNSt8ios_base4InitC1Ev
	mov	DWORD PTR [esp], OFFSET FLAT:___tcf_0
	call	_atexit
L10:
	.loc 1 34 0
	leave
	.cfi_restore 5
	.cfi_def_cfa 4, 4
	ret
	.cfi_endproc
LFE983:
	.def	__GLOBAL__sub_I__ZN9SomeClassC2Ev;	.scl	3;	.type	32;	.endef
__GLOBAL__sub_I__ZN9SomeClassC2Ev:
LFB985:
	.loc 1 34 0
	.cfi_startproc
	push	ebp
	.cfi_def_cfa_offset 8
	.cfi_offset 5, -8
	mov	ebp, esp
	.cfi_def_cfa_register 5
	sub	esp, 24
	.loc 1 34 0
	mov	DWORD PTR [esp+4], 65535
	mov	DWORD PTR [esp], 1
	call	__Z41__static_initialization_and_destruction_0ii
	leave
	.cfi_restore 5
	.cfi_def_cfa 4, 4
	ret
	.cfi_endproc
LFE985:
	.section	.ctors,"w"
	.align 4
	.long	__GLOBAL__sub_I__ZN9SomeClassC2Ev
	.text
Letext0:
	.file 3 "d:/programs/mingw/lib/gcc/mingw32/4.8.1/include/stddef.h"
	.file 4 "d:/programs/mingw/include/wctype.h"
	.file 5 "d:/programs/mingw/include/wchar.h"
	.file 6 "d:/programs/mingw/lib/gcc/mingw32/4.8.1/include/c++/cwchar"
	.file 7 "d:/programs/mingw/lib/gcc/mingw32/4.8.1/include/c++/bits/char_traits.h"
	.file 8 "d:/programs/mingw/lib/gcc/mingw32/4.8.1/include/c++/mingw32/bits/c++config.h"
	.file 9 "d:/programs/mingw/lib/gcc/mingw32/4.8.1/include/c++/clocale"
	.file 10 "d:/programs/mingw/lib/gcc/mingw32/4.8.1/include/c++/bits/ios_base.h"
	.file 11 "d:/programs/mingw/lib/gcc/mingw32/4.8.1/include/c++/cwctype"
	.file 12 "d:/programs/mingw/lib/gcc/mingw32/4.8.1/include/c++/iosfwd"
	.file 13 "<built-in>"
	.file 14 "d:/programs/mingw/lib/gcc/mingw32/4.8.1/include/c++/exception"
	.file 15 "d:/programs/mingw/lib/gcc/mingw32/4.8.1/include/c++/ext/new_allocator.h"
	.file 16 "d:/programs/mingw/lib/gcc/mingw32/4.8.1/include/c++/ext/numeric_traits.h"
	.file 17 "d:/programs/mingw/lib/gcc/mingw32/4.8.1/include/c++/debug/debug.h"
	.file 18 "d:/programs/mingw/include/locale.h"
	.file 19 "d:/programs/mingw/lib/gcc/mingw32/4.8.1/include/c++/mingw32/bits/atomic_word.h"
	.file 20 "d:/programs/mingw/include/ctype.h"
	.file 21 "d:/programs/mingw/lib/gcc/mingw32/4.8.1/include/c++/mingw32/bits/gthr-default.h"